Certificate:
    Data:
        Version: 3 (0x2)
        Serial Number: 265 (0x109)
        Signature Algorithm: sha256WithRSAEncryption
        Issuer: C=ES, ST=Madrid, O=Internet Widgits Pty Ltd, OU=Grupo 2-89, CN=SubCa Password Manager Grupo 2-89/emailAddress=100383016@alumnos.uc3m.es
        Validity
            Not Before: Dec  4 20:42:01 2021 GMT
            Not After : Dec  4 20:42:01 2022 GMT
        Subject: C=ES, ST=Madrid, O=Internet Widgits Pty Ltd, OU=Group 2 89 Universidad Carlos III, CN=Lucia Maria Moya Sans/emailAddress=100383016@alumnos.uc3m.es
        Subject Public Key Info:
            Public Key Algorithm: rsaEncryption
                RSA Public-Key: (2048 bit)
                Modulus:
                    00:b0:14:ec:bf:c1:bc:e9:a4:44:7d:f4:b6:99:76:
                    56:e1:5f:a5:0d:92:35:79:70:96:d5:47:75:99:e0:
                    3c:6f:cf:93:12:fc:d9:64:21:ef:66:bc:05:2a:78:
                    ce:94:d4:3b:f1:24:8c:5b:a0:d7:96:62:50:95:f1:
                    b9:3a:eb:44:00:5e:6d:e2:b0:41:e1:bb:8e:9f:67:
                    c8:03:3f:50:ca:7d:9a:6d:99:d3:5e:d5:4e:8c:bb:
                    7f:0e:65:22:70:c9:d2:3b:84:ff:df:9e:0a:2a:bf:
                    9d:ef:67:b9:76:61:62:19:6a:d0:d8:77:d5:8e:43:
                    9d:18:fa:25:ad:39:91:33:09:bd:b7:5a:98:53:1e:
                    43:97:62:39:35:13:6b:55:29:72:87:df:fe:e7:6e:
                    bd:10:99:00:c6:a7:67:56:5a:54:5f:fb:a9:5c:4b:
                    58:b5:73:2e:46:20:d4:6e:c2:bb:df:52:82:1b:45:
                    81:50:ee:5c:98:ef:e5:93:b1:67:b8:75:64:bd:02:
                    1f:32:a1:81:e2:0c:ec:75:58:1e:7a:36:ba:80:01:
                    c2:cf:b7:2e:4f:7d:c5:db:10:74:b9:0a:98:9a:21:
                    e1:e4:78:ef:8a:e9:9f:f0:05:14:80:76:2b:48:26:
                    91:bb:7d:33:3f:41:e9:c6:77:da:ee:3f:0b:38:d3:
                    6a:01
                Exponent: 65537 (0x10001)
        X509v3 extensions:
            X509v3 Basic Constraints: 
                CA:FALSE
            Netscape Comment: 
                OpenSSL Generated Certificate
            X509v3 Subject Key Identifier: 
                90:EF:1C:2F:0A:1B:9E:BE:E1:A0:4E:BA:D3:34:E5:74:01:A8:05:B5
            X509v3 Authority Key Identifier: 
                keyid:70:4B:92:DF:07:80:EC:D6:3B:31:88:E8:2D:87:13:7B:88:3E:3C:9E

    Signature Algorithm: sha256WithRSAEncryption
         28:6f:28:0c:da:29:98:62:f9:85:a0:9c:11:7e:f9:83:d6:eb:
         cd:16:64:bf:d8:bc:9d:d0:10:94:b5:bd:c1:d4:c5:64:c8:81:
         a5:96:88:aa:ff:ed:c0:c3:9b:54:05:9e:39:1f:80:ad:7d:8e:
         c2:18:90:e6:05:51:17:5a:dd:41:aa:5e:6a:01:15:35:33:ae:
         0b:d4:3d:f3:07:37:cb:95:7b:9c:d6:19:6b:ba:3d:c7:a6:94:
         d1:17:8b:f8:50:6a:b8:e7:15:67:82:b0:01:51:3b:5c:e9:15:
         59:9a:2f:f0:74:a3:5c:66:23:a4:e2:a9:b2:0b:16:15:63:a1:
         ce:af:80:b1:2d:a8:67:0f:5e:da:19:a3:e0:0e:d8:b1:c8:46:
         1a:17:5e:1d:df:8e:e0:5d:d1:64:cc:b6:c1:9a:9a:8a:c1:fe:
         68:00:6b:e9:b2:fe:99:ba:87:ab:48:10:70:7b:91:50:5b:1a:
         e8:40:01:75:36:8c:0e:00:05:2d:17:de:94:cf:67:6b:d9:1b:
         67:76:fa:be:71:13:27:7b:5e:b7:f9:bf:9f:21:48:ba:a2:02:
         3a:b7:f2:28:c1:df:57:b8:82:3a:a6:48:cb:40:08:56:87:a6:
         7b:51:27:2c:04:c0:80:4e:79:06:b6:5f:36:30:9a:8f:dc:5e:
         b6:21:14:f3
-----BEGIN CERTIFICATE-----
MIIEXDCCA0SgAwIBAgICAQkwDQYJKoZIhvcNAQELBQAwgawxCzAJBgNVBAYTAkVT
MQ8wDQYDVQQIDAZNYWRyaWQxITAfBgNVBAoMGEludGVybmV0IFdpZGdpdHMgUHR5
IEx0ZDETMBEGA1UECwwKR3J1cG8gMi04OTEqMCgGA1UEAwwhU3ViQ2EgUGFzc3dv
cmQgTWFuYWdlciBHcnVwbyAyLTg5MSgwJgYJKoZIhvcNAQkBFhkxMDAzODMwMTZA
YWx1bW5vcy51YzNtLmVzMB4XDTIxMTIwNDIwNDIwMVoXDTIyMTIwNDIwNDIwMVow
gbcxCzAJBgNVBAYTAkVTMQ8wDQYDVQQIDAZNYWRyaWQxITAfBgNVBAoMGEludGVy
bmV0IFdpZGdpdHMgUHR5IEx0ZDEqMCgGA1UECwwhR3JvdXAgMiA4OSBVbml2ZXJz
aWRhZCBDYXJsb3MgSUlJMR4wHAYDVQQDDBVMdWNpYSBNYXJpYSBNb3lhIFNhbnMx
KDAmBgkqhkiG9w0BCQEWGTEwMDM4MzAxNkBhbHVtbm9zLnVjM20uZXMwggEiMA0G
CSqGSIb3DQEBAQUAA4IBDwAwggEKAoIBAQCwFOy/wbzppER99LaZdlbhX6UNkjV5
cJbVR3WZ4Dxvz5MS/NlkIe9mvAUqeM6U1DvxJIxboNeWYlCV8bk660QAXm3isEHh
u46fZ8gDP1DKfZptmdNe1U6Mu38OZSJwydI7hP/fngoqv53vZ7l2YWIZatDYd9WO
Q50Y+iWtOZEzCb23WphTHkOXYjk1E2tVKXKH3/7nbr0QmQDGp2dWWlRf+6lcS1i1
cy5GINRuwrvfUoIbRYFQ7lyY7+WTsWe4dWS9Ah8yoYHiDOx1WB56NrqAAcLPty5P
fcXbEHS5CpiaIeHkeO+K6Z/wBRSAditIJpG7fTM/QenGd9ruPws402oBAgMBAAGj
ezB5MAkGA1UdEwQCMAAwLAYJYIZIAYb4QgENBB8WHU9wZW5TU0wgR2VuZXJhdGVk
IENlcnRpZmljYXRlMB0GA1UdDgQWBBSQ7xwvChuevuGgTrrTNOV0AagFtTAfBgNV
HSMEGDAWgBRwS5LfB4Ds1jsxiOgthxN7iD48njANBgkqhkiG9w0BAQsFAAOCAQEA
KG8oDNopmGL5haCcEX75g9brzRZkv9i8ndAQlLW9wdTFZMiBpZaIqv/twMObVAWe
OR+ArX2OwhiQ5gVRF1rdQapeagEVNTOuC9Q98wc3y5V7nNYZa7o9x6aU0ReL+FBq
uOcVZ4KwAVE7XOkVWZov8HSjXGYjpOKpsgsWFWOhzq+AsS2oZw9e2hmj4A7YschG
GhdeHd+O4F3RZMy2wZqaisH+aABr6bL+mbqHq0gQcHuRUFsa6EABdTaMDgAFLRfe
lM9na9kbZ3b6vnETJ3tet/m/nyFIuqICOrfyKMHfV7iCOqZIy0AIVoeme1EnLATA
gE55BrZfNjCaj9xetiEU8w==
-----END CERTIFICATE-----
