Certificate:
    Data:
        Version: 3 (0x2)
        Serial Number: 264 (0x108)
        Signature Algorithm: sha256WithRSAEncryption
        Issuer: C=ES, ST=Madrid, O=Internet Widgits Pty Ltd, OU=Grupo 2-89, CN=SubCa Password Manager Grupo 2-89/emailAddress=100383016@alumnos.uc3m.es
        Validity
            Not Before: Dec  4 20:35:46 2021 GMT
            Not After : Dec  4 20:35:46 2022 GMT
        Subject: C=ES, ST=Madrid, O=Internet Widgits Pty Ltd, OU=Universidad Carlos III, CN=PasswordManager server/emailAddress=server@pwmanager.uc3m.es
        Subject Public Key Info:
            Public Key Algorithm: rsaEncryption
                RSA Public-Key: (2048 bit)
                Modulus:
                    00:ba:68:e1:dc:f4:96:ef:0a:1d:27:22:6a:99:b8:
                    5a:db:bd:6e:11:7c:50:71:9e:ab:fb:4c:27:e0:1c:
                    a7:f8:9a:5c:20:88:88:18:11:0c:6f:d5:36:1e:b7:
                    19:4f:64:41:8c:61:39:06:ff:ac:eb:ac:8b:f3:da:
                    b4:dd:c0:ad:bd:82:45:a5:bd:1f:37:13:35:3b:37:
                    7a:72:92:04:f5:3a:c1:c9:d3:a3:87:36:ee:bf:f4:
                    0a:f9:6b:69:1d:fa:03:8a:4f:a4:1e:d5:a5:72:2c:
                    c1:f9:08:e9:7b:a3:f4:d1:59:78:89:4b:87:f3:cb:
                    61:ac:f1:c0:62:77:ac:0a:d8:50:db:ed:6f:c3:56:
                    7f:a7:15:90:71:47:49:1a:e1:74:6d:af:41:c1:86:
                    48:06:d3:c6:19:cd:c6:c9:70:c9:eb:6d:4e:da:54:
                    c9:34:ab:07:a6:3f:e5:20:c6:54:6c:44:16:0a:44:
                    b4:c9:5a:2b:9c:3e:98:9e:2c:76:a6:c1:74:76:66:
                    7f:8d:06:b4:4f:26:b9:b2:48:3e:fd:c7:03:59:b7:
                    6a:89:a8:9c:a3:43:6e:94:fd:61:bb:74:ae:0f:63:
                    37:8d:17:df:8c:08:16:55:00:ac:f2:4a:b4:94:ab:
                    62:eb:6e:e3:1c:c8:cf:a9:63:e6:a4:c5:00:15:c6:
                    92:5b
                Exponent: 65537 (0x10001)
        X509v3 extensions:
            X509v3 Basic Constraints: 
                CA:FALSE
            Netscape Comment: 
                OpenSSL Generated Certificate
            X509v3 Subject Key Identifier: 
                D0:AE:CD:8F:0A:E4:A0:68:54:1A:37:21:6C:00:2A:FF:9A:89:E6:A7
            X509v3 Authority Key Identifier: 
                keyid:70:4B:92:DF:07:80:EC:D6:3B:31:88:E8:2D:87:13:7B:88:3E:3C:9E

    Signature Algorithm: sha256WithRSAEncryption
         4b:e0:38:20:57:21:1c:88:56:9b:9a:00:01:4c:ab:4c:95:b6:
         e1:82:50:bc:cd:d2:8c:0b:76:c0:9e:28:46:c2:c7:ba:7b:30:
         c5:68:8c:78:08:b6:3c:44:be:e1:6f:f7:02:28:44:93:8d:ac:
         d2:7a:37:67:60:cf:e8:fa:ab:3d:f5:e1:12:4a:69:bd:eb:96:
         db:1c:f5:1c:c7:87:ad:f2:66:34:55:76:31:45:7d:e0:aa:71:
         ca:24:93:55:42:d5:34:64:12:66:ec:28:42:05:43:73:1d:e3:
         55:95:57:96:0d:c6:c0:86:52:c4:02:6a:e0:54:ef:70:e5:b1:
         2c:a5:7a:a7:45:be:af:10:ed:22:6d:30:70:41:6d:3a:4e:b6:
         70:d4:78:6f:8e:37:d7:54:bb:8a:67:16:2b:5c:4d:85:31:68:
         36:06:78:e9:1e:75:02:92:37:12:10:cb:60:56:05:65:bb:75:
         52:c9:29:06:ab:a5:71:2c:32:14:77:1a:0c:3f:3e:89:39:ed:
         74:ab:09:a1:a6:35:93:73:8a:1e:22:eb:db:01:f8:2b:6b:e2:
         d3:6c:3c:6e:3b:5b:2b:51:76:3a:32:ba:ce:4c:35:6a:28:a5:
         87:cc:fa:fe:18:23:0a:09:91:ec:d4:ac:53:34:63:31:56:a2:
         1e:65:24:ba
-----BEGIN CERTIFICATE-----
MIIEUTCCAzmgAwIBAgICAQgwDQYJKoZIhvcNAQELBQAwgawxCzAJBgNVBAYTAkVT
MQ8wDQYDVQQIDAZNYWRyaWQxITAfBgNVBAoMGEludGVybmV0IFdpZGdpdHMgUHR5
IEx0ZDETMBEGA1UECwwKR3J1cG8gMi04OTEqMCgGA1UEAwwhU3ViQ2EgUGFzc3dv
cmQgTWFuYWdlciBHcnVwbyAyLTg5MSgwJgYJKoZIhvcNAQkBFhkxMDAzODMwMTZA
YWx1bW5vcy51YzNtLmVzMB4XDTIxMTIwNDIwMzU0NloXDTIyMTIwNDIwMzU0Nlow
gawxCzAJBgNVBAYTAkVTMQ8wDQYDVQQIDAZNYWRyaWQxITAfBgNVBAoMGEludGVy
bmV0IFdpZGdpdHMgUHR5IEx0ZDEfMB0GA1UECwwWVW5pdmVyc2lkYWQgQ2FybG9z
IElJSTEfMB0GA1UEAwwWUGFzc3dvcmRNYW5hZ2VyIHNlcnZlcjEnMCUGCSqGSIb3
DQEJARYYc2VydmVyQHB3bWFuYWdlci51YzNtLmVzMIIBIjANBgkqhkiG9w0BAQEF
AAOCAQ8AMIIBCgKCAQEAumjh3PSW7wodJyJqmbha271uEXxQcZ6r+0wn4Byn+Jpc
IIiIGBEMb9U2HrcZT2RBjGE5Bv+s66yL89q03cCtvYJFpb0fNxM1Ozd6cpIE9TrB
ydOjhzbuv/QK+WtpHfoDik+kHtWlcizB+Qjpe6P00Vl4iUuH88thrPHAYnesCthQ
2+1vw1Z/pxWQcUdJGuF0ba9BwYZIBtPGGc3GyXDJ621O2lTJNKsHpj/lIMZUbEQW
CkS0yVornD6Ynix2psF0dmZ/jQa0Tya5skg+/ccDWbdqiaico0NulP1hu3SuD2M3
jRffjAgWVQCs8kq0lKti627jHMjPqWPmpMUAFcaSWwIDAQABo3sweTAJBgNVHRME
AjAAMCwGCWCGSAGG+EIBDQQfFh1PcGVuU1NMIEdlbmVyYXRlZCBDZXJ0aWZpY2F0
ZTAdBgNVHQ4EFgQU0K7NjwrkoGhUGjchbAAq/5qJ5qcwHwYDVR0jBBgwFoAUcEuS
3weA7NY7MYjoLYcTe4g+PJ4wDQYJKoZIhvcNAQELBQADggEBAEvgOCBXIRyIVpua
AAFMq0yVtuGCULzN0owLdsCeKEbCx7p7MMVojHgItjxEvuFv9wIoRJONrNJ6N2dg
z+j6qz314RJKab3rltsc9RzHh63yZjRVdjFFfeCqccokk1VC1TRkEmbsKEIFQ3Md
41WVV5YNxsCGUsQCauBU73DlsSyleqdFvq8Q7SJtMHBBbTpOtnDUeG+ON9dUu4pn
FitcTYUxaDYGeOkedQKSNxIQy2BWBWW7dVLJKQarpXEsMhR3Ggw/Pok57XSrCaGm
NZNzih4i69sB+Ctr4tNsPG47WytRdjoyus5MNWoopYfM+v4YIwoJkezUrFM0YzFW
oh5lJLo=
-----END CERTIFICATE-----
