Certificate:
    Data:
        Version: 3 (0x2)
        Serial Number: 267 (0x10b)
        Signature Algorithm: sha256WithRSAEncryption
        Issuer: C=ES, ST=Madrid, O=Internet Widgits Pty Ltd, OU=Grupo 2-89, CN=SubCa Password Manager Grupo 2-89/emailAddress=100383016@alumnos.uc3m.es
        Validity
            Not Before: Dec  4 20:45:29 2021 GMT
            Not After : Dec  4 20:45:29 2022 GMT
        Subject: C=ES, ST=Madrid, O=Internet Widgits Pty Ltd, OU=Universidad Carlos III, CN=Default User/emailAddress=100xxxxxx@alumnos.uc3m.es
        Subject Public Key Info:
            Public Key Algorithm: rsaEncryption
                RSA Public-Key: (2048 bit)
                Modulus:
                    00:ce:bd:30:1a:de:2f:2b:90:05:6d:a6:62:70:b6:
                    a0:4c:aa:18:94:8f:c5:fb:11:32:35:51:1a:58:07:
                    56:7e:80:d4:d9:9b:b5:75:28:f7:8b:71:9f:3e:92:
                    92:af:91:af:7b:95:fc:95:ae:7f:33:c2:bf:97:f8:
                    a9:e7:7e:fa:ce:e7:7c:ad:1b:e3:5d:cd:4a:ec:0c:
                    89:8a:2a:36:01:ab:47:44:fb:0a:53:eb:60:83:54:
                    89:dc:04:8e:0f:71:ff:e1:16:00:8a:b0:b6:cc:34:
                    54:c0:b5:d2:37:c9:03:be:df:1d:65:46:1c:4a:ec:
                    24:ad:79:93:e7:1b:53:26:c7:92:e8:7b:57:e2:89:
                    77:78:fd:05:d2:a7:6b:bc:fc:1e:0e:79:3e:02:94:
                    f9:fc:22:b7:31:f6:da:60:a1:fd:20:38:f8:06:92:
                    d1:34:f6:ec:c6:d1:23:b4:06:d2:0a:ca:27:db:0d:
                    a2:7c:1d:9c:21:27:41:19:81:12:2f:1d:4b:9b:13:
                    8b:96:52:1f:53:08:06:65:ae:38:0b:c1:27:c1:48:
                    5d:63:14:99:8e:e0:9c:72:bb:d1:02:d4:4c:dd:54:
                    36:fb:9f:83:15:b6:5d:b3:b2:a2:9e:80:32:7a:5c:
                    9b:17:3c:21:2e:9b:56:49:cd:c9:4e:fe:83:7b:3e:
                    ab:3d
                Exponent: 65537 (0x10001)
        X509v3 extensions:
            X509v3 Basic Constraints: 
                CA:FALSE
            Netscape Comment: 
                OpenSSL Generated Certificate
            X509v3 Subject Key Identifier: 
                38:FE:ED:07:4D:4F:42:23:C7:D3:9F:C9:65:FD:9D:86:B4:C0:F7:8B
            X509v3 Authority Key Identifier: 
                keyid:70:4B:92:DF:07:80:EC:D6:3B:31:88:E8:2D:87:13:7B:88:3E:3C:9E

    Signature Algorithm: sha256WithRSAEncryption
         4c:67:16:eb:b7:0d:45:6f:2b:3d:14:f9:ae:92:a8:b1:c2:2d:
         d4:7b:c7:8d:97:8d:c5:a7:c8:13:fa:98:78:16:7b:b6:fe:94:
         b2:53:a7:9b:0b:6c:3e:ac:55:00:e1:bd:50:d6:40:85:e1:d8:
         0d:5f:3c:f2:49:10:a0:26:5c:3a:2a:38:cf:00:54:84:27:87:
         15:df:be:b6:dc:b3:13:63:b5:99:d2:d6:da:8f:18:27:f1:b7:
         10:52:a3:d1:bf:98:72:87:ae:77:81:17:0f:c3:e4:13:25:ea:
         42:56:b9:88:48:e7:00:73:d9:38:4e:4e:73:52:c7:63:3b:99:
         4d:27:be:ef:a6:d1:59:52:4f:8e:08:7f:0c:f2:d7:b4:13:db:
         4a:9f:e4:73:c6:93:aa:5d:40:34:a2:15:2a:0b:8b:b4:9a:85:
         b6:52:e6:88:22:03:8b:bc:ee:8f:a5:ee:b3:00:99:7d:1a:af:
         fc:54:81:a7:2c:36:84:0e:a9:de:29:84:c3:6c:53:0a:d7:d7:
         a0:5a:66:c0:1a:8e:61:a0:d3:85:0f:78:cf:44:40:3e:6c:ca:
         0c:90:7c:ab:33:fc:27:0f:3b:ab:8a:be:90:7a:fb:a8:fc:ef:
         16:15:4e:96:8a:5f:17:26:56:bf:e5:c8:2c:10:fd:3b:0c:a4:
         a8:5e:1a:09
-----BEGIN CERTIFICATE-----
MIIESDCCAzCgAwIBAgICAQswDQYJKoZIhvcNAQELBQAwgawxCzAJBgNVBAYTAkVT
MQ8wDQYDVQQIDAZNYWRyaWQxITAfBgNVBAoMGEludGVybmV0IFdpZGdpdHMgUHR5
IEx0ZDETMBEGA1UECwwKR3J1cG8gMi04OTEqMCgGA1UEAwwhU3ViQ2EgUGFzc3dv
cmQgTWFuYWdlciBHcnVwbyAyLTg5MSgwJgYJKoZIhvcNAQkBFhkxMDAzODMwMTZA
YWx1bW5vcy51YzNtLmVzMB4XDTIxMTIwNDIwNDUyOVoXDTIyMTIwNDIwNDUyOVow
gaMxCzAJBgNVBAYTAkVTMQ8wDQYDVQQIDAZNYWRyaWQxITAfBgNVBAoMGEludGVy
bmV0IFdpZGdpdHMgUHR5IEx0ZDEfMB0GA1UECwwWVW5pdmVyc2lkYWQgQ2FybG9z
IElJSTEVMBMGA1UEAwwMRGVmYXVsdCBVc2VyMSgwJgYJKoZIhvcNAQkBFhkxMDB4
eHh4eHhAYWx1bW5vcy51YzNtLmVzMIIBIjANBgkqhkiG9w0BAQEFAAOCAQ8AMIIB
CgKCAQEAzr0wGt4vK5AFbaZicLagTKoYlI/F+xEyNVEaWAdWfoDU2Zu1dSj3i3Gf
PpKSr5Gve5X8la5/M8K/l/ip5376zud8rRvjXc1K7AyJiio2AatHRPsKU+tgg1SJ
3ASOD3H/4RYAirC2zDRUwLXSN8kDvt8dZUYcSuwkrXmT5xtTJseS6HtX4ol3eP0F
0qdrvPweDnk+ApT5/CK3MfbaYKH9IDj4BpLRNPbsxtEjtAbSCson2w2ifB2cISdB
GYESLx1LmxOLllIfUwgGZa44C8EnwUhdYxSZjuCccrvRAtRM3VQ2+5+DFbZds7Ki
noAyelybFzwhLptWSc3JTv6Dez6rPQIDAQABo3sweTAJBgNVHRMEAjAAMCwGCWCG
SAGG+EIBDQQfFh1PcGVuU1NMIEdlbmVyYXRlZCBDZXJ0aWZpY2F0ZTAdBgNVHQ4E
FgQUOP7tB01PQiPH05/JZf2dhrTA94swHwYDVR0jBBgwFoAUcEuS3weA7NY7MYjo
LYcTe4g+PJ4wDQYJKoZIhvcNAQELBQADggEBAExnFuu3DUVvKz0U+a6SqLHCLdR7
x42XjcWnyBP6mHgWe7b+lLJTp5sLbD6sVQDhvVDWQIXh2A1fPPJJEKAmXDoqOM8A
VIQnhxXfvrbcsxNjtZnS1tqPGCfxtxBSo9G/mHKHrneBFw/D5BMl6kJWuYhI5wBz
2ThOTnNSx2M7mU0nvu+m0VlST44Ifwzy17QT20qf5HPGk6pdQDSiFSoLi7SahbZS
5ogiA4u87o+l7rMAmX0ar/xUgacsNoQOqd4phMNsUwrX16BaZsAajmGg04UPeM9E
QD5sygyQfKsz/CcPO6uKvpB6+6j87xYVTpaKXxcmVr/lyCwQ/TsMpKheGgk=
-----END CERTIFICATE-----
