Certificate:
    Data:
        Version: 3 (0x2)
        Serial Number: 266 (0x10a)
        Signature Algorithm: sha256WithRSAEncryption
        Issuer: C=ES, ST=Madrid, O=Internet Widgits Pty Ltd, OU=Grupo 2-89, CN=SubCa Password Manager Grupo 2-89/emailAddress=100383016@alumnos.uc3m.es
        Validity
            Not Before: Dec  4 20:44:37 2021 GMT
            Not After : Dec  4 20:44:37 2022 GMT
        Subject: C=ES, ST=Madrid, O=Internet Widgits Pty Ltd, OU=Group 2 89 Universidad Carlos III, CN=Ivan Dario Cersosimo/emailAddress=100392936@alumnos.uc3m.es
        Subject Public Key Info:
            Public Key Algorithm: rsaEncryption
                RSA Public-Key: (2048 bit)
                Modulus:
                    00:cb:a0:18:e9:2e:d5:92:22:c8:cd:79:e4:e6:e9:
                    6d:6d:22:20:b6:02:b6:dc:1c:a7:2a:9e:56:4e:33:
                    ba:37:92:fe:f2:f6:42:d7:e5:82:6d:88:60:8a:b7:
                    ab:61:6e:cd:d5:a9:6e:de:8c:11:64:fc:16:79:56:
                    cd:c3:4a:2e:ad:c6:72:32:44:09:f8:d4:cf:99:18:
                    06:d9:1b:32:db:f7:cf:e5:28:bd:27:b4:70:10:d6:
                    3b:a4:5b:eb:8a:f1:08:ff:4b:3e:67:de:06:40:b4:
                    d3:3c:43:fa:36:9d:24:d3:3e:d6:97:2d:39:6d:93:
                    b8:f2:8e:77:66:20:88:dc:7f:0e:ad:4a:1d:4f:64:
                    22:92:2a:b7:90:cf:6b:f0:d9:7e:5f:88:fe:4d:23:
                    97:e0:07:67:79:40:28:0a:d7:6b:4e:07:5b:b3:6d:
                    bb:4b:fa:c4:d0:b7:40:f9:12:96:d1:e0:dd:31:fe:
                    49:8c:8d:d9:59:2b:b4:03:85:9c:fa:4a:24:fa:87:
                    bc:60:55:4f:b7:41:0c:a2:c7:b5:49:77:aa:53:53:
                    9e:49:5b:08:f2:b2:98:32:23:34:d0:40:27:96:4a:
                    0a:74:01:ca:69:5a:0a:f7:05:42:ad:51:0d:a1:a8:
                    04:6d:a7:3f:91:33:2b:47:f1:f1:1c:f1:4a:56:ee:
                    54:e5
                Exponent: 65537 (0x10001)
        X509v3 extensions:
            X509v3 Basic Constraints: 
                CA:FALSE
            Netscape Comment: 
                OpenSSL Generated Certificate
            X509v3 Subject Key Identifier: 
                31:7A:F2:B1:A8:2F:39:B8:9F:19:61:AF:CF:91:C8:A2:F7:66:38:3A
            X509v3 Authority Key Identifier: 
                keyid:70:4B:92:DF:07:80:EC:D6:3B:31:88:E8:2D:87:13:7B:88:3E:3C:9E

    Signature Algorithm: sha256WithRSAEncryption
         51:ad:a6:6c:2e:48:61:36:b5:3d:55:f8:b9:75:b4:85:55:5f:
         11:63:77:bb:a2:27:86:70:d6:65:6e:ea:93:85:60:9e:9c:ec:
         95:a4:d7:9f:fe:9c:90:06:f9:7b:68:fb:d2:d5:fd:98:cb:48:
         13:2e:c3:4c:31:4f:d0:57:7f:61:05:93:6c:b7:4f:22:3b:cc:
         72:3b:16:11:d7:79:14:b0:0e:c5:19:80:70:ba:eb:32:a4:98:
         73:6e:58:4f:ef:ae:72:02:30:05:c4:0a:47:75:b7:fc:71:87:
         b6:e0:e5:84:18:6f:1a:0c:c3:97:10:e4:27:40:28:e6:dd:82:
         51:ad:f1:68:ee:52:e9:d7:a9:5c:24:b9:15:bb:c1:0a:1a:04:
         38:3c:43:cc:99:98:f0:de:7e:a0:00:44:0e:5b:34:28:7e:06:
         29:3a:46:5a:c0:53:bb:fa:43:2b:ab:46:6c:70:a7:25:f8:1d:
         bf:0d:60:74:85:fd:35:87:db:8a:da:e4:b4:f8:a3:d7:44:3c:
         73:2a:6f:a1:57:ed:c2:fe:7e:df:3d:2a:46:82:56:cb:78:0a:
         7f:8b:1f:87:d9:9b:e7:71:e0:53:1f:ff:47:b7:7b:16:c1:8e:
         b2:d7:b6:06:08:d7:b4:ee:93:76:8d:a7:b6:b0:d9:61:a6:44:
         3a:46:78:fb
-----BEGIN CERTIFICATE-----
MIIEWzCCA0OgAwIBAgICAQowDQYJKoZIhvcNAQELBQAwgawxCzAJBgNVBAYTAkVT
MQ8wDQYDVQQIDAZNYWRyaWQxITAfBgNVBAoMGEludGVybmV0IFdpZGdpdHMgUHR5
IEx0ZDETMBEGA1UECwwKR3J1cG8gMi04OTEqMCgGA1UEAwwhU3ViQ2EgUGFzc3dv
cmQgTWFuYWdlciBHcnVwbyAyLTg5MSgwJgYJKoZIhvcNAQkBFhkxMDAzODMwMTZA
YWx1bW5vcy51YzNtLmVzMB4XDTIxMTIwNDIwNDQzN1oXDTIyMTIwNDIwNDQzN1ow
gbYxCzAJBgNVBAYTAkVTMQ8wDQYDVQQIDAZNYWRyaWQxITAfBgNVBAoMGEludGVy
bmV0IFdpZGdpdHMgUHR5IEx0ZDEqMCgGA1UECwwhR3JvdXAgMiA4OSBVbml2ZXJz
aWRhZCBDYXJsb3MgSUlJMR0wGwYDVQQDDBRJdmFuIERhcmlvIENlcnNvc2ltbzEo
MCYGCSqGSIb3DQEJARYZMTAwMzkyOTM2QGFsdW1ub3MudWMzbS5lczCCASIwDQYJ
KoZIhvcNAQEBBQADggEPADCCAQoCggEBAMugGOku1ZIiyM155ObpbW0iILYCttwc
pyqeVk4zujeS/vL2Qtflgm2IYIq3q2FuzdWpbt6MEWT8FnlWzcNKLq3GcjJECfjU
z5kYBtkbMtv3z+UovSe0cBDWO6Rb64rxCP9LPmfeBkC00zxD+jadJNM+1pctOW2T
uPKOd2YgiNx/Dq1KHU9kIpIqt5DPa/DZfl+I/k0jl+AHZ3lAKArXa04HW7Ntu0v6
xNC3QPkSltHg3TH+SYyN2VkrtAOFnPpKJPqHvGBVT7dBDKLHtUl3qlNTnklbCPKy
mDIjNNBAJ5ZKCnQBymlaCvcFQq1RDaGoBG2nP5EzK0fx8RzxSlbuVOUCAwEAAaN7
MHkwCQYDVR0TBAIwADAsBglghkgBhvhCAQ0EHxYdT3BlblNTTCBHZW5lcmF0ZWQg
Q2VydGlmaWNhdGUwHQYDVR0OBBYEFDF68rGoLzm4nxlhr8+RyKL3Zjg6MB8GA1Ud
IwQYMBaAFHBLkt8HgOzWOzGI6C2HE3uIPjyeMA0GCSqGSIb3DQEBCwUAA4IBAQBR
raZsLkhhNrU9Vfi5dbSFVV8RY3e7oieGcNZlbuqThWCenOyVpNef/pyQBvl7aPvS
1f2Yy0gTLsNMMU/QV39hBZNst08iO8xyOxYR13kUsA7FGYBwuusypJhzblhP765y
AjAFxApHdbf8cYe24OWEGG8aDMOXEOQnQCjm3YJRrfFo7lLp16lcJLkVu8EKGgQ4
PEPMmZjw3n6gAEQOWzQofgYpOkZawFO7+kMrq0ZscKcl+B2/DWB0hf01h9uK2uS0
+KPXRDxzKm+hV+3C/n7fPSpGglbLeAp/ix+H2ZvnceBTH/9Ht3sWwY6y17YGCNe0
7pN2jae2sNlhpkQ6Rnj7
-----END CERTIFICATE-----
